target datalayout = "e-m:e-p270:32:32-p271:32:32-p272:64:64-i64:64-i128:128-f80:128-n8:16:32:64-S128"
target triple = "x86_64-pc-linux-gnu"

%struct._cms_io_handler = type { ptr, ptr, i32, i32, [256 x i8], ptr, ptr, ptr, ptr, ptr }

; Function Attrs: nounwind uwtable
define hidden zeroext i16 @_cmsAdjustEndianess16(i16 noundef zeroext %0) #0 {
  %2 = alloca i16, align 2
  %3 = alloca ptr, align 8
  %4 = alloca i8, align 1
  store i16 %0, ptr %2, align 2
  store ptr %2, ptr %3, align 8
  %5 = load ptr, ptr %3, align 8
  %6 = getelementptr inbounds i8, ptr %5, i64 0
  %7 = load i8, ptr %6, align 1
  store i8 %7, ptr %4, align 1
  %8 = load ptr, ptr %3, align 8
  %9 = getelementptr inbounds i8, ptr %8, i64 1
  %10 = load i8, ptr %9, align 1
  %11 = load ptr, ptr %3, align 8
  %12 = getelementptr inbounds i8, ptr %11, i64 0
  store i8 %10, ptr %12, align 1
  %13 = load i8, ptr %4, align 1
  %14 = load ptr, ptr %3, align 8
  %15 = getelementptr inbounds i8, ptr %14, i64 1
  store i8 %13, ptr %15, align 1
  %16 = load i16, ptr %2, align 2
  ret i16 %16
}

; Function Attrs: nounwind uwtable
define hidden i32 @_cmsWriteUInt16Number(ptr noundef %0, i16 noundef zeroext %1) #0 {
  %3 = alloca i32, align 4
  %4 = alloca ptr, align 8
  %5 = alloca i16, align 2
  %6 = alloca i16, align 2
  store ptr %0, ptr %4, align 8
  store i16 %1, ptr %5, align 2
  %7 = load i16, ptr %5, align 2
  %8 = call zeroext i16 @_cmsAdjustEndianess16(i16 noundef zeroext %7)
  store i16 %8, ptr %6, align 2
  %9 = load ptr, ptr %4, align 8
  %10 = getelementptr inbounds %struct._cms_io_handler, ptr %9, i32 0, i32 9
  %11 = load ptr, ptr %10, align 8
  %12 = load ptr, ptr %4, align 8
  %13 = call i32 %11(ptr noundef %12, i32 noundef 2, ptr noundef %6)
  %14 = icmp ne i32 %13, 1
  br i1 %14, label %15, label %16

15:                                               ; preds = %2
  store i32 0, ptr %3, align 4
  br label %17

16:                                               ; preds = %2
  store i32 1, ptr %3, align 4
  br label %17

17:                                               ; preds = %16, %15
  %18 = load i32, ptr %3, align 4
  ret i32 %18
}