; Function Attrs: nounwind uwtable
define hidden range(i32 0, 2) i32 @_cmsWriteUInt16Number(ptr noundef %0, i16 noundef zeroext %1) local_unnamed_addr #2 {
  %3 = alloca i16, align 2
  %.sroa.0.0.insert.insert.i = tail call noundef i16 @llvm.bswap.i16(i16 %1)
  store i16 %.sroa.0.0.insert.insert.i, ptr %3, align 2
  %4 = getelementptr inbounds i8, ptr %0, i64 312
  %5 = load ptr, ptr %4, align 8
  %6 = call i32 %5(ptr noundef %0, i32 noundef 2, ptr noundef nonnull %3) #12
  %.not = icmp eq i32 %6, 1
  %. = zext i1 %.not to i32
  ret i32 %.
}